; Function Attrs: mustprogress nofree norecurse nosync nounwind willreturn memory(argmem: write) uwtable
define hidden noundef nonnull ptr @_ZN6google8protobuf8internal11SerialArena3NewENS2_6MemoryEPv(ptr initializes((0, 32), (48, 64)) %0, i64 %1, ptr noundef %2) local_unnamed_addr #3 align 2 personality ptr @__gxx_personality_v0 {
  store ptr null, ptr %0, align 8, !tbaa !3
  %4 = getelementptr inbounds nuw i8, ptr %0, i64 8
  store i64 %1, ptr %4, align 8, !tbaa !11
  %5 = getelementptr inbounds nuw i8, ptr %0, i64 16
  store ptr null, ptr %5, align 8, !tbaa !12
  %6 = getelementptr inbounds nuw i8, ptr %0, i64 24
  %7 = getelementptr inbounds nuw i8, ptr %0, i64 48
  store i64 0, ptr %7, align 8, !tbaa !13
  %8 = getelementptr inbounds nuw i8, ptr %0, i64 56
  store i64 %1, ptr %8, align 8, !tbaa !19
  store ptr %2, ptr %6, align 8, !tbaa !20
  %9 = getelementptr inbounds nuw i8, ptr %0, i64 32
  store ptr %0, ptr %9, align 8, !tbaa !21
  %10 = getelementptr inbounds nuw i8, ptr %0, i64 80
  %11 = getelementptr inbounds nuw i8, ptr %0, i64 64
  store ptr %10, ptr %11, align 8, !tbaa !22
  %12 = and i64 %1, -8
  %13 = getelementptr inbounds nuw i8, ptr %0, i64 %12
  %14 = getelementptr inbounds nuw i8, ptr %0, i64 72
  store ptr %13, ptr %14, align 8, !tbaa !23
  ret ptr %6
}